Certificate:
    Data:
        Version: 1 (0x0)
        Serial Number: 4 (0x4)
        Signature Algorithm: md5WithRSAEncryption
        Issuer: O=RCF CA B, L=Canberra, ST=Australian Capital Territory, C=AU
        Validity
            Not Before: May 26 09:41:02 2011 GMT
            Not After : May 25 09:41:02 2012 GMT
        Subject: C=AU, ST=Australian Capital Territory, O=RCF CA B, CN=localhost
        Subject Public Key Info:
            Public Key Algorithm: rsaEncryption
            RSA Public Key: (1024 bit)
                Modulus (1024 bit):
                    00:ae:c2:b6:d0:71:a6:25:7a:a2:1f:14:7a:96:c8:
                    e2:eb:fa:34:38:fb:b9:cb:be:cf:f5:22:c6:b1:58:
                    99:47:09:00:51:4c:3a:5c:0d:c0:5c:5a:15:06:1f:
                    5a:f0:4d:c0:4f:1c:6b:11:53:59:fb:1e:a1:bc:90:
                    cd:8e:08:2c:70:cc:19:90:f5:1b:e8:71:c4:8d:9a:
                    40:a1:00:20:a6:c4:c9:74:95:13:6c:62:7a:09:c4:
                    af:57:d8:14:93:be:72:51:c7:1f:73:5f:92:51:0d:
                    33:ab:ef:44:51:ec:ac:5f:29:e4:83:74:cd:5b:5e:
                    2d:c4:5d:98:3f:fc:f2:a7:3d
                Exponent: 65537 (0x10001)
    Signature Algorithm: md5WithRSAEncryption
        22:12:50:43:bb:e9:48:f6:32:1a:0c:d4:0a:c9:11:a4:f6:68:
        c4:4c:59:f9:7f:1a:e3:70:2b:5d:4f:3a:86:e2:6b:fb:f9:2e:
        eb:19:85:d9:3e:96:b4:4d:e4:03:69:d2:bb:c4:19:32:6c:7c:
        c7:eb:67:d3:cf:f7:ab:77:07:5c:19:3c:72:39:ce:20:e1:e8:
        58:69:20:44:e2:14:83:05:12:55:44:dd:0d:7c:7a:66:35:c0:
        1a:21:6b:54:89:c4:c9:5e:2d:fd:75:ac:35:c8:84:5e:22:32:
        f5:3e:b2:e1:77:2b:a6:00:2e:92:1e:90:37:43:79:a1:df:40:
        38:be
-----BEGIN CERTIFICATE-----
MIICJDCCAY0CAQQwDQYJKoZIhvcNAQEEBQAwWjERMA8GA1UEChMIUkNGIENBIEIx
ETAPBgNVBAcTCENhbmJlcnJhMSUwIwYDVQQIExxBdXN0cmFsaWFuIENhcGl0YWwg
VGVycml0b3J5MQswCQYDVQQGEwJBVTAeFw0xMTA1MjYwOTQxMDJaFw0xMjA1MjUw
OTQxMDJaMFsxCzAJBgNVBAYTAkFVMSUwIwYDVQQIExxBdXN0cmFsaWFuIENhcGl0
YWwgVGVycml0b3J5MREwDwYDVQQKEwhSQ0YgQ0EgQjESMBAGA1UEAxMJbG9jYWxo
b3N0MIGfMA0GCSqGSIb3DQEBAQUAA4GNADCBiQKBgQCuwrbQcaYleqIfFHqWyOLr
+jQ4+7nLvs/1IsaxWJlHCQBRTDpcDcBcWhUGH1rwTcBPHGsRU1n7HqG8kM2OCCxw
zBmQ9RvoccSNmkChACCmxMl0lRNsYnoJxK9X2BSTvnJRxx9zX5JRDTOr70RR7Kxf
KeSDdM1bXi3EXZg//PKnPQIDAQABMA0GCSqGSIb3DQEBBAUAA4GBACISUEO76Uj2
MhoM1ArJEaT2aMRMWfl/GuNwK11POobia/v5LusZhdk+lrRN5ANp0rvEGTJsfMfr
Z9PP96t3B1wZPHI5ziDh6FhpIETiFIMFElVE3Q18emY1wBoha1SJxMleLf11rDXI
hF4iMvU+suF3K6YALpIekDdDeaHfQDi+
-----END CERTIFICATE-----
-----BEGIN RSA PRIVATE KEY-----
MIICXAIBAAKBgQCuwrbQcaYleqIfFHqWyOLr+jQ4+7nLvs/1IsaxWJlHCQBRTDpc
DcBcWhUGH1rwTcBPHGsRU1n7HqG8kM2OCCxwzBmQ9RvoccSNmkChACCmxMl0lRNs
YnoJxK9X2BSTvnJRxx9zX5JRDTOr70RR7KxfKeSDdM1bXi3EXZg//PKnPQIDAQAB
AoGAC7um6ne23+1L1Spa0KTMF2vE9c5wuu0kqSCclmuMXuiLzOmBQYzqzUh/ANo6
EMgnkSgnSBKAiAuWcEKIinCiCxQzjADTK2y22ATSwrJrNjQ/gJfgeQGDmDVhvagz
QjJpZnVGKe9BASTR7kysU7DBA5S5hqLCVnde9lvDuYYqn0ECQQDhTatlPUNU3fOe
3djPEYYNDXpJncfhf6E8otNjl3j0cKgax8SNrGKtOvITXvFodbem2QTcS3BhyWnj
2rd3Fo7TAkEAxpIrIDVwDs4fWqRwYoTaAANgQ/NDktz8BhLbYdE2Yu6HToRpng/M
hfXAdOCziYZ11v67UirOfmdHO7a1j9vHrwJATy+3P9vqYFeqGnoqi4zDKq9D/b/A
0tbC2sb3uRcx4ef+jXsM8CZYgD4pevlxq59ELxYziSHSm+volbb3qJl7FQJBALAA
Tok11CTLPa8xoQsxhagNVf3kWDiL9jXL8Pc6YGI/2V4WryaSCk2SDQuLPpbevwPY
tF+X4X7YO6MJxtPDkbECQHTNajF+FcZsFvgKNs7Oa5PXJ3T4R0TU1MZNhS27TSAc
YMaPWo9Yz1dwyfzRRs473yCD9BcyoEu3Zx4+xgbMoH0=
-----END RSA PRIVATE KEY-----
