Certificate:
    Data:
        Version: 1 (0x0)
        Serial Number: 4 (0x4)
        Signature Algorithm: md5WithRSAEncryption
        Issuer: O=RCF CA A, L=Canberra, ST=Australian Capital Territory, C=AU
        Validity
            Not Before: May 26 09:37:11 2011 GMT
            Not After : May 25 09:37:11 2012 GMT
        Subject: C=AU, ST=Australian Capital Territory, O=RCF CA A, CN=localhost
        Subject Public Key Info:
            Public Key Algorithm: rsaEncryption
            RSA Public Key: (1024 bit)
                Modulus (1024 bit):
                    00:c1:97:5c:da:5c:3c:35:ff:56:90:0b:8b:71:cc:
                    32:ab:94:37:3e:d9:13:b8:6c:33:18:d1:7b:80:ca:
                    40:b9:74:9d:b5:00:b4:54:e2:86:92:27:6c:20:b2:
                    c6:bd:4d:f8:e0:30:dc:ea:6c:26:a6:4b:01:ea:e7:
                    42:5a:08:c7:ba:23:62:57:ac:2b:a1:fd:81:e4:00:
                    3c:79:f4:76:7b:1d:27:d1:21:5c:8f:50:5f:70:69:
                    f6:4c:04:a7:69:e1:2c:7d:7f:85:a1:c6:71:c8:d3:
                    e4:d6:ba:21:e3:6e:cd:f1:c8:9c:56:66:08:60:88:
                    d7:37:a5:7a:de:ca:3d:0c:55
                Exponent: 65537 (0x10001)
    Signature Algorithm: md5WithRSAEncryption
        8e:40:82:db:48:33:b0:5d:06:67:29:ad:0c:06:be:4e:42:d6:
        34:d5:ef:9d:41:6d:11:b6:f2:51:42:6d:0f:14:5f:4e:d3:2d:
        1e:da:e7:18:c2:4f:b2:ce:62:0e:d3:2e:b8:a1:fd:e7:17:5b:
        a3:30:68:65:49:9a:b7:cc:50:b2:70:d5:a0:a1:f5:98:b0:d9:
        da:20:a5:e3:8a:38:a1:67:26:46:e4:9f:41:01:1d:96:74:c9:
        ed:49:49:0e:53:65:f8:da:6c:e5:52:51:74:1e:a6:45:a8:c0:
        57:01:98:96:49:78:48:f8:31:a4:24:e0:72:82:0a:f0:98:bf:
        92:21
-----BEGIN CERTIFICATE-----
MIICJDCCAY0CAQQwDQYJKoZIhvcNAQEEBQAwWjERMA8GA1UEChMIUkNGIENBIEEx
ETAPBgNVBAcTCENhbmJlcnJhMSUwIwYDVQQIExxBdXN0cmFsaWFuIENhcGl0YWwg
VGVycml0b3J5MQswCQYDVQQGEwJBVTAeFw0xMTA1MjYwOTM3MTFaFw0xMjA1MjUw
OTM3MTFaMFsxCzAJBgNVBAYTAkFVMSUwIwYDVQQIExxBdXN0cmFsaWFuIENhcGl0
YWwgVGVycml0b3J5MREwDwYDVQQKEwhSQ0YgQ0EgQTESMBAGA1UEAxMJbG9jYWxo
b3N0MIGfMA0GCSqGSIb3DQEBAQUAA4GNADCBiQKBgQDBl1zaXDw1/1aQC4txzDKr
lDc+2RO4bDMY0XuAykC5dJ21ALRU4oaSJ2wgssa9TfjgMNzqbCamSwHq50JaCMe6
I2JXrCuh/YHkADx59HZ7HSfRIVyPUF9wafZMBKdp4Sx9f4WhxnHI0+TWuiHjbs3x
yJxWZghgiNc3pXreyj0MVQIDAQABMA0GCSqGSIb3DQEBBAUAA4GBAI5AgttIM7Bd
BmcprQwGvk5C1jTV751BbRG28lFCbQ8UX07TLR7a5xjCT7LOYg7TLrih/ecXW6Mw
aGVJmrfMULJw1aCh9Ziw2dogpeOKOKFnJkbkn0EBHZZ0ye1JSQ5TZfjabOVSUXQe
pkWowFcBmJZJeEj4MaQk4HKCCvCYv5Ih
-----END CERTIFICATE-----
-----BEGIN RSA PRIVATE KEY-----
MIICXQIBAAKBgQDBl1zaXDw1/1aQC4txzDKrlDc+2RO4bDMY0XuAykC5dJ21ALRU
4oaSJ2wgssa9TfjgMNzqbCamSwHq50JaCMe6I2JXrCuh/YHkADx59HZ7HSfRIVyP
UF9wafZMBKdp4Sx9f4WhxnHI0+TWuiHjbs3xyJxWZghgiNc3pXreyj0MVQIDAQAB
AoGBAKlbdmKc8Bu4/gxT3TC3l9hceJwlocfj+CuND4NS7J6Rc2ombJwZ8+omTMSq
QYzYipHujUUTShiOY+YRXA2Rws8A8OSMaKvJJVVoUbvbZpXti5M2boPfBCbpdbyC
qTbGwqPGq4NtCXCHSf7QgQSuOZPThLcK7jFWAMBk+CYBYW+hAkEA7Gpmy3vy2UIh
WmLK2BOCsw1s6hgyk6JGuj1KlXbSVyGK5GdP93Qwxxz5gouPWSdEkuicn7Zp1bug
786DL0VZuQJBANGgzAn2CBaKYRu+K0XCNdvT+QjaZObRfQ1nJpdq4ebd4zVv2kY0
vq788f3AQDfTfRDxTUzTuntbCV8NMqzspX0CQHXE/1Yoda5isgi7o/6FoZseef4X
dcJzmTYXaDsSiO+cpvrmuEA14kKeHXE5onwwAooIVFV/YjN1l1M+lb0LmAkCQQCh
9ycvGxUstUZKdShiAagzbRghKvyDCqEgVe6PV1mrUw1WIFH5pI8gDPe8I2p6t8EN
8iLTlVOkM7aN5lidG0rRAkAohL0ujckCK9kadRp+K9la028rUZjg6E/Han+LjD/Z
rX/PW7DuVQa7EIt0IydL7RqpXgsGFcssTNGc2WMXE38q
-----END RSA PRIVATE KEY-----
